target datalayout = "e-m:e-p270:32:32-p271:32:32-p272:64:64-i64:64-i128:128-f80:128-n8:16:32:64-S128"
target triple = "x86_64-pc-linux-gnu"

%struct.partition_info_msg = type { i64, i32, ptr }

@scontrol_load_partitions.last_show_flags = internal global i16 -1, align 2
@all_flag = external global i32, align 4
@old_part_info_ptr = external global ptr, align 8
@quiet_flag = external global i32, align 4
@.str = private unnamed_addr constant [35 x i8] c"slurm_load_part no change in data\0A\00", align 1

; Function Attrs: nounwind uwtable
define dso_local i32 @scontrol_load_partitions(ptr noundef %0) #0 {
  %2 = alloca ptr, align 8
  %3 = alloca i32, align 4
  %4 = alloca i16, align 2
  %5 = alloca ptr, align 8
  store ptr %0, ptr %2, align 8
  call void @llvm.lifetime.start.p0(i64 4, ptr %3) #6
  call void @llvm.lifetime.start.p0(i64 2, ptr %4) #6
  store i16 0, ptr %4, align 2
  call void @llvm.lifetime.start.p0(i64 8, ptr %5) #6
  store ptr null, ptr %5, align 8
  %6 = load i32, ptr @all_flag, align 4
  %7 = icmp ne i32 %6, 0
  br i1 %7, label %8, label %13

8:                                                ; preds = %1
  %9 = load i16, ptr %4, align 2
  %10 = zext i16 %9 to i64
  %11 = or i64 %10, 1
  %12 = trunc i64 %11 to i16
  store i16 %12, ptr %4, align 2
  br label %13

13:                                               ; preds = %8, %1
  %14 = load ptr, ptr @old_part_info_ptr, align 8
  %15 = icmp ne ptr %14, null
  br i1 %15, label %16, label %48

16:                                               ; preds = %13
  %17 = load i16, ptr @scontrol_load_partitions.last_show_flags, align 2
  %18 = zext i16 %17 to i32
  %19 = load i16, ptr %4, align 2
  %20 = zext i16 %19 to i32
  %21 = icmp ne i32 %18, %20
  br i1 %21, label %22, label %25

22:                                               ; preds = %16
  %23 = load ptr, ptr @old_part_info_ptr, align 8
  %24 = getelementptr inbounds nuw %struct.partition_info_msg, ptr %23, i32 0, i32 0
  store i64 0, ptr %24, align 8
  br label %25

25:                                               ; preds = %22, %16
  %26 = load ptr, ptr @old_part_info_ptr, align 8
  %27 = getelementptr inbounds nuw %struct.partition_info_msg, ptr %26, i32 0, i32 0
  %28 = load i64, ptr %27, align 8
  %29 = load i16, ptr %4, align 2
  %30 = call i32 @slurm_load_partitions(i64 noundef %28, ptr noundef %5, i16 noundef zeroext %29)
  store i32 %30, ptr %3, align 4
  %31 = load i32, ptr %3, align 4
  %32 = icmp eq i32 %31, 0
  br i1 %32, label %33, label %35

33:                                               ; preds = %25
  %34 = load ptr, ptr @old_part_info_ptr, align 8
  call void @slurm_free_partition_info_msg(ptr noundef %34)
  br label %47

35:                                               ; preds = %25
  %36 = call ptr @__errno_location() #7
  %37 = load i32, ptr %36, align 4
  %38 = icmp eq i32 %37, 1900
  br i1 %38, label %39, label %46

39:                                               ; preds = %35
  %40 = load ptr, ptr @old_part_info_ptr, align 8
  store ptr %40, ptr %5, align 8
  store i32 0, ptr %3, align 4
  %41 = load i32, ptr @quiet_flag, align 4
  %42 = icmp eq i32 %41, -1
  br i1 %42, label %43, label %45

43:                                               ; preds = %39
  %44 = call i32 (ptr, ...) @printf(ptr noundef @.str)
  br label %45

45:                                               ; preds = %43, %39
  br label %46

46:                                               ; preds = %45, %35
  br label %47

47:                                               ; preds = %46, %33
  br label %51

48:                                               ; preds = %13
  %49 = load i16, ptr %4, align 2
  %50 = call i32 @slurm_load_partitions(i64 noundef 0, ptr noundef %5, i16 noundef zeroext %49)
  store i32 %50, ptr %3, align 4
  br label %51

51:                                               ; preds = %48, %47
  %52 = load i32, ptr %3, align 4
  %53 = icmp eq i32 %52, 0
  br i1 %53, label %54, label %59

54:                                               ; preds = %51
  %55 = load ptr, ptr %5, align 8
  store ptr %55, ptr @old_part_info_ptr, align 8
  %56 = load i16, ptr %4, align 2
  store i16 %56, ptr @scontrol_load_partitions.last_show_flags, align 2
  %57 = load ptr, ptr %5, align 8
  %58 = load ptr, ptr %2, align 8
  store ptr %57, ptr %58, align 8
  br label %59

59:                                               ; preds = %54, %51
  %60 = load i32, ptr %3, align 4
  call void @llvm.lifetime.end.p0(i64 8, ptr %5) #6
  call void @llvm.lifetime.end.p0(i64 2, ptr %4) #6
  call void @llvm.lifetime.end.p0(i64 4, ptr %3) #6
  ret i32 %60
}