; Function Attrs: nounwind uwtable
define dso_local i32 @scontrol_load_partitions(ptr noundef writeonly captures(none) %0) local_unnamed_addr #0 {
  %2 = alloca ptr, align 8
  call void @llvm.lifetime.start.p0(i64 8, ptr nonnull %2) #7
  store ptr null, ptr %2, align 8
  %3 = load i32, ptr @all_flag, align 4
  %.not = icmp ne i32 %3, 0
  %spec.select = zext i1 %.not to i16
  %4 = load ptr, ptr @old_part_info_ptr, align 8
  %.not11 = icmp eq ptr %4, null
  br i1 %.not11, label %24, label %5

5:                                                ; preds = %1
  %6 = load i16, ptr @scontrol_load_partitions.last_show_flags, align 2
  %.not12 = icmp eq i16 %6, %spec.select
  br i1 %.not12, label %8, label %7

7:                                                ; preds = %5
  store i64 0, ptr %4, align 8
  %.pre = load ptr, ptr @old_part_info_ptr, align 8
  br label %8

8:                                                ; preds = %7, %5
  %9 = phi ptr [ %.pre, %7 ], [ %4, %5 ]
  %10 = load i64, ptr %9, align 8
  %11 = call i32 @slurm_load_partitions(i64 noundef %10, ptr noundef nonnull %2, i16 noundef zeroext %spec.select) #7
  %12 = icmp eq i32 %11, 0
  br i1 %12, label %13, label %15

13:                                               ; preds = %8
  %14 = load ptr, ptr @old_part_info_ptr, align 8
  call void @slurm_free_partition_info_msg(ptr noundef %14) #7
  br label %.thread

15:                                               ; preds = %8
  %16 = tail call ptr @__errno_location() #8
  %17 = load i32, ptr %16, align 4
  %18 = icmp eq i32 %17, 1900
  br i1 %18, label %19, label %.thread16

19:                                               ; preds = %15
  %20 = load ptr, ptr @old_part_info_ptr, align 8
  store ptr %20, ptr %2, align 8
  %21 = load i32, ptr @quiet_flag, align 4
  %22 = icmp eq i32 %21, -1
  br i1 %22, label %23, label %.thread

23:                                               ; preds = %19
  %puts = call i32 @puts(ptr nonnull dereferenceable(1) @str)
  br label %.thread

24:                                               ; preds = %1
  %25 = call i32 @slurm_load_partitions(i64 noundef 0, ptr noundef nonnull %2, i16 noundef zeroext %spec.select) #7
  %26 = icmp eq i32 %25, 0
  br i1 %26, label %.thread, label %.thread16

.thread:                                          ; preds = %19, %23, %13, %24
  %27 = load ptr, ptr %2, align 8
  store ptr %27, ptr @old_part_info_ptr, align 8
  store i16 %spec.select, ptr @scontrol_load_partitions.last_show_flags, align 2
  store ptr %27, ptr %0, align 8
  br label %.thread16

.thread16:                                        ; preds = %15, %.thread, %24
  %.0814 = phi i32 [ 0, %.thread ], [ %25, %24 ], [ %11, %15 ]
  call void @llvm.lifetime.end.p0(i64 8, ptr nonnull %2) #7
  ret i32 %.0814
}